target datalayout = "e-m:e-p270:32:32-p271:32:32-p272:64:64-i64:64-i128:128-f80:128-n8:16:32:64-S128"
target triple = "x86_64-pc-linux-gnu"

%class.StatementIf = type { %class.Statement, ptr, ptr, ptr }
%class.Statement = type { ptr, i32, i32, ptr, ptr }

; Function Attrs: mustprogress uwtable
define dso_local noundef zeroext i1 @_ZNK11StatementIf9must_jumpEv(ptr noundef nonnull align 8 dereferenceable(56) %0) unnamed_addr #4 align 2 {
  %2 = alloca ptr, align 8
  store ptr %0, ptr %2, align 8, !tbaa !51
  %3 = load ptr, ptr %2, align 8
  %4 = getelementptr inbounds nuw %class.StatementIf, ptr %3, i32 0, i32 2
  %5 = load ptr, ptr %4, align 8, !tbaa !86
  %6 = load ptr, ptr %5, align 8, !tbaa !42
  %7 = getelementptr inbounds ptr, ptr %6, i64 7
  %8 = load ptr, ptr %7, align 8
  %9 = call noundef zeroext i1 %8(ptr noundef nonnull align 8 dereferenceable(192) %5)
  br i1 %9, label %10, label %17

10:                                               ; preds = %1
  %11 = getelementptr inbounds nuw %class.StatementIf, ptr %3, i32 0, i32 3
  %12 = load ptr, ptr %11, align 8, !tbaa !87
  %13 = load ptr, ptr %12, align 8, !tbaa !42
  %14 = getelementptr inbounds ptr, ptr %13, i64 7
  %15 = load ptr, ptr %14, align 8
  %16 = call noundef zeroext i1 %15(ptr noundef nonnull align 8 dereferenceable(192) %12)
  br label %17

17:                                               ; preds = %10, %1
  %18 = phi i1 [ false, %1 ], [ %16, %10 ]
  ret i1 %18
}