; Function Attrs: mustprogress uwtable
define dso_local noundef zeroext i1 @_ZNK11StatementIf9must_jumpEv(ptr noundef nonnull readonly align 8 captures(none) dereferenceable(56) %0) unnamed_addr #3 align 2 {
  %2 = getelementptr inbounds nuw i8, ptr %0, i64 40
  %3 = load ptr, ptr %2, align 8, !tbaa !76
  %4 = load ptr, ptr %3, align 8, !tbaa !49
  %5 = getelementptr inbounds nuw i8, ptr %4, i64 56
  %6 = load ptr, ptr %5, align 8
  %7 = tail call noundef zeroext i1 %6(ptr noundef nonnull align 8 dereferenceable(192) %3)
  br i1 %7, label %8, label %15

8:                                                ; preds = %1
  %9 = getelementptr inbounds nuw i8, ptr %0, i64 48
  %10 = load ptr, ptr %9, align 8, !tbaa !77
  %11 = load ptr, ptr %10, align 8, !tbaa !49
  %12 = getelementptr inbounds nuw i8, ptr %11, i64 56
  %13 = load ptr, ptr %12, align 8
  %14 = tail call noundef zeroext i1 %13(ptr noundef nonnull align 8 dereferenceable(192) %10)
  br label %15

15:                                               ; preds = %8, %1
  %16 = phi i1 [ false, %1 ], [ %14, %8 ]
  ret i1 %16
}